; ModuleID = '60/1717.c'
source_filename = "60/1717.c"
target datalayout = "e-m:e-p270:32:32-p271:32:32-p272:64:64-i64:64-f80:128-n8:16:32:64-S128"
target triple = "x86_64-pc-linux-gnu"

@.str = private unnamed_addr constant [3 x i8] c"%d\00", align 1
@.str.1 = private unnamed_addr constant [7 x i8] c"%d %d\0A\00", align 1
@.str.2 = private unnamed_addr constant [6 x i8] c"empty\00", align 1

; Function Attrs: noinline nounwind uwtable
define dso_local i32 @su(i32 %0) #0 {
  %2 = alloca i32, align 4
  %3 = alloca i32, align 4
  %4 = alloca i32, align 4
  store i32 %0, i32* %3, align 4
  store i32 2, i32* %4, align 4
  br label %5

5:                                                ; preds = %10, %1
  %6 = load i32, i32* %3, align 4
  %7 = load i32, i32* %4, align 4
  %8 = srem i32 %6, %7
  %9 = icmp ne i32 %8, 0
  br i1 %9, label %10, label %13

10:                                               ; preds = %5
  %11 = load i32, i32* %4, align 4
  %12 = add nsw i32 %11, 1
  store i32 %12, i32* %4, align 4
  br label %5

13:                                               ; preds = %5
  %14 = load i32, i32* %4, align 4
  %15 = load i32, i32* %3, align 4
  %16 = icmp sge i32 %14, %15
  br i1 %16, label %17, label %18

17:                                               ; preds = %13
  store i32 1, i32* %2, align 4
  br label %19

18:                                               ; preds = %13
  store i32 0, i32* %2, align 4
  br label %19

19:                                               ; preds = %18, %17
  %20 = load i32, i32* %2, align 4
  ret i32 %20
}

; Function Attrs: noinline nounwind uwtable
define dso_local i32 @main() #0 {
  %1 = alloca i32, align 4
  %2 = alloca i32, align 4
  %3 = alloca i32, align 4
  %4 = alloca i32, align 4
  store i32 0, i32* %1, align 4
  %5 = call i32 (i8*, ...) @__isoc99_scanf(i8* getelementptr inbounds ([3 x i8], [3 x i8]* @.str, i64 0, i64 0), i32* %2)
  %6 = load i32, i32* %2, align 4
  %7 = icmp sge i32 %6, 5
  br i1 %7, label %8, label %33

8:                                                ; preds = %0
  store i32 3, i32* %3, align 4
  br label %9

9:                                                ; preds = %29, %8
  %10 = load i32, i32* %3, align 4
  %11 = load i32, i32* %2, align 4
  %12 = sub nsw i32 %11, 2
  %13 = icmp sle i32 %10, %12
  br i1 %13, label %14, label %32

14:                                               ; preds = %9
  %15 = load i32, i32* %3, align 4
  %16 = add nsw i32 %15, 2
  store i32 %16, i32* %4, align 4
  %17 = load i32, i32* %3, align 4
  %18 = call i32 @su(i32 %17)
  %19 = icmp ne i32 %18, 0
  br i1 %19, label %20, label %28

20:                                               ; preds = %14
  %21 = load i32, i32* %4, align 4
  %22 = call i32 @su(i32 %21)
  %23 = icmp ne i32 %22, 0
  br i1 %23, label %24, label %28

24:                                               ; preds = %20
  %25 = load i32, i32* %3, align 4
  %26 = load i32, i32* %4, align 4
  %27 = call i32 (i8*, ...) @printf(i8* getelementptr inbounds ([7 x i8], [7 x i8]* @.str.1, i64 0, i64 0), i32 %25, i32 %26)
  br label %28

28:                                               ; preds = %24, %20, %14
  br label %29

29:                                               ; preds = %28
  %30 = load i32, i32* %3, align 4
  %31 = add nsw i32 %30, 2
  store i32 %31, i32* %3, align 4
  br label %9

32:                                               ; preds = %9
  br label %35

33:                                               ; preds = %0
  %34 = call i32 (i8*, ...) @printf(i8* getelementptr inbounds ([6 x i8], [6 x i8]* @.str.2, i64 0, i64 0))
  br label %35

35:                                               ; preds = %33, %32
  %36 = load i32, i32* %1, align 4
  ret i32 %36
}

declare dso_local i32 @__isoc99_scanf(i8*, ...) #1

declare dso_local i32 @printf(i8*, ...) #1


!llvm.module.flags = !{!0}
!llvm.ident = !{!1}

!0 = !{i32 1, !"wchar_size", i32 4}
!1 = !{!"clang version 10.0.0-4ubuntu1 "}
