; ModuleID = 'source-C-CXX/59/1717.c'
source_filename = "source-C-CXX/59/1717.c"
target datalayout = "e-m:e-p270:32:32-p271:32:32-p272:64:64-i64:64-f80:128-n8:16:32:64-S128"
target triple = "x86_64-pc-linux-gnu"

@.str = private unnamed_addr constant [3 x i8] c"%d\00", align 1
@.str.1 = private unnamed_addr constant [7 x i8] c"%d %d\0A\00", align 1
@.str.2 = private unnamed_addr constant [6 x i8] c"empty\00", align 1

; Function Attrs: nofree norecurse nosync nounwind readnone sspstrong uwtable
define dso_local i32 @su(i32 %0) local_unnamed_addr #0 {
  br label %2

2:                                                ; preds = %2, %1
  %3 = phi i32 [ 2, %1 ], [ %6, %2 ]
  %4 = srem i32 %0, %3
  %5 = icmp eq i32 %4, 0
  %6 = add nuw nsw i32 %3, 1
  br i1 %5, label %7, label %2, !llvm.loop !5

7:                                                ; preds = %2
  %8 = icmp sge i32 %3, %0
  %9 = zext i1 %8 to i32
  ret i32 %9
}

; Function Attrs: argmemonly mustprogress nofree nosync nounwind willreturn
declare void @llvm.lifetime.start.p0i8(i64 immarg, i8* nocapture) #1

; Function Attrs: argmemonly mustprogress nofree nosync nounwind willreturn
declare void @llvm.lifetime.end.p0i8(i64 immarg, i8* nocapture) #1

; Function Attrs: nofree nounwind sspstrong uwtable
define dso_local i32 @main() local_unnamed_addr #2 {
  %1 = alloca i32, align 4
  %2 = bitcast i32* %1 to i8*
  call void @llvm.lifetime.start.p0i8(i64 4, i8* nonnull %2) #4
  %3 = call i32 (i8*, ...) @__isoc99_scanf(i8* getelementptr inbounds ([3 x i8], [3 x i8]* @.str, i64 0, i64 0), i32* nonnull %1)
  %4 = load i32, i32* %1, align 4, !tbaa !7
  %5 = icmp sgt i32 %4, 4
  br i1 %5, label %6, label %31

6:                                                ; preds = %0, %27
  %7 = phi i32 [ %28, %27 ], [ %4, %0 ]
  %8 = phi i32 [ %15, %27 ], [ 3, %0 ]
  br label %9

9:                                                ; preds = %9, %6
  %10 = phi i32 [ 2, %6 ], [ %13, %9 ]
  %11 = urem i32 %8, %10
  %12 = icmp eq i32 %11, 0
  %13 = add nuw nsw i32 %10, 1
  br i1 %12, label %14, label %9, !llvm.loop !5

14:                                               ; preds = %9
  %15 = add nuw nsw i32 %8, 2
  %16 = icmp ult i32 %10, %8
  br i1 %16, label %27, label %17

17:                                               ; preds = %14, %17
  %18 = phi i32 [ %21, %17 ], [ 2, %14 ]
  %19 = urem i32 %15, %18
  %20 = icmp eq i32 %19, 0
  %21 = add nuw nsw i32 %18, 1
  br i1 %20, label %22, label %17, !llvm.loop !5

22:                                               ; preds = %17
  %23 = icmp ult i32 %18, %15
  br i1 %23, label %27, label %24

24:                                               ; preds = %22
  %25 = call i32 (i8*, ...) @printf(i8* nonnull dereferenceable(1) getelementptr inbounds ([7 x i8], [7 x i8]* @.str.1, i64 0, i64 0), i32 %8, i32 %15)
  %26 = load i32, i32* %1, align 4, !tbaa !7
  br label %27

27:                                               ; preds = %14, %22, %24
  %28 = phi i32 [ %7, %14 ], [ %7, %22 ], [ %26, %24 ]
  %29 = add nsw i32 %28, -2
  %30 = icmp sgt i32 %15, %29
  br i1 %30, label %33, label %6, !llvm.loop !11

31:                                               ; preds = %0
  %32 = call i32 (i8*, ...) @printf(i8* nonnull dereferenceable(1) getelementptr inbounds ([6 x i8], [6 x i8]* @.str.2, i64 0, i64 0))
  br label %33

33:                                               ; preds = %27, %31
  call void @llvm.lifetime.end.p0i8(i64 4, i8* nonnull %2) #4
  ret i32 0
}

; Function Attrs: nofree nounwind
declare noundef i32 @__isoc99_scanf(i8* nocapture noundef readonly, ...) local_unnamed_addr #3

; Function Attrs: nofree nounwind
declare noundef i32 @printf(i8* nocapture noundef readonly, ...) local_unnamed_addr #3


!llvm.module.flags = !{!0, !1, !2, !3}
!llvm.ident = !{!4}

!0 = !{i32 1, !"wchar_size", i32 4}
!1 = !{i32 7, !"PIC Level", i32 2}
!2 = !{i32 7, !"PIE Level", i32 2}
!3 = !{i32 7, !"uwtable", i32 1}
!4 = !{!"clang version 13.0.0"}
!5 = distinct !{!5, !6}
!6 = !{!"llvm.loop.mustprogress"}
!7 = !{!8, !8, i64 0}
!8 = !{!"int", !9, i64 0}
!9 = !{!"omnipotent char", !10, i64 0}
!10 = !{!"Simple C/C++ TBAA"}
!11 = distinct !{!11, !6}
